#include <math.h>
#include <stdio.h>
#include <stdlib.h>
#include <string.h>

struct student
{
	char name[25];
	int qimo;
	int banji;
	char ganbu;
	char xibu;
	int lunwen;
	int jiangjin;

};
void main()
{
	int n,q=0;
	struct student stu[100];
	int i,j,k,r,m=0;
	scanf("%d",&n);
	for(i=0;i<n;i++)
	{
		scanf("%s%d%d %c %c%d",stu[i].name,&stu[i].qimo,&stu[i].banji,&stu[i].ganbu,&stu[i].xibu,&stu[i].lunwen);
//		scanf("%d",&stu[i].qimo);
//		scanf("%d",&stu[i].banji);
//		scanf("&c",&stu[i].ganbu);
//		scanf("%c",&stu[i].xibu);
//		scanf("%d",&stu[i].lunwen);
		stu[i].jiangjin=0;
	}

	for(i=0;i<n;i++)
	{
		if(stu[i].qimo>80&&stu[i].lunwen>=1)stu[i].jiangjin=stu[i].jiangjin+8000;
		if(stu[i].qimo>85&&stu[i].banji>80)stu[i].jiangjin=stu[i].jiangjin+4000;
		if(stu[i].qimo>90)stu[i].jiangjin=stu[i].jiangjin+2000;
		if(stu[i].qimo>85&&stu[i].xibu=='Y')stu[i].jiangjin=stu[i].jiangjin+1000;
		if(stu[i].banji>80&&stu[i].ganbu=='Y')stu[i].jiangjin=stu[i].jiangjin+850;
		q=q+stu[i].jiangjin;
	}
	for(i=0,q=0;i<n;i++)
	{
		if(stu[i].jiangjin>m)m=stu[i].jiangjin;
		q=q+stu[i].jiangjin;
	}
	for(i=0;i<n;i++)
	{
		if(stu[i].jiangjin==m)
		{
			printf("%s\n",stu[i].name);
			printf("%d\n",m);
			printf("%d",q);
			break;

		}

	}

}