target datalayout = "e-m:e-p270:32:32-p271:32:32-p272:64:64-i64:64-f80:128-n8:16:32:64-S128"
target triple = "x86_64-pc-linux-gnu"

%struct.student = type { [25 x i8], i32, i32, i8, i8, i32, i32 }

@.str = private unnamed_addr constant [3 x i8] c"%d\00", align 1
@.str.1 = private unnamed_addr constant [15 x i8] c"%s%d%d %c %c%d\00", align 1
@.str.2 = private unnamed_addr constant [4 x i8] c"%s\0A\00", align 1
@.str.3 = private unnamed_addr constant [4 x i8] c"%d\0A\00", align 1

; Function Attrs: noinline nounwind uwtable
define dso_local void @main() #0 {
  %1 = alloca i32, align 4
  %2 = alloca i32, align 4
  %3 = alloca [100 x %struct.student], align 16
  %4 = alloca i32, align 4
  %5 = alloca i32, align 4
  %6 = alloca i32, align 4
  %7 = alloca i32, align 4
  %8 = alloca i32, align 4
  store i32 0, i32* %2, align 4
  store i32 0, i32* %8, align 4
  %9 = call i32 (i8*, ...) @__isoc99_scanf(i8* getelementptr inbounds ([3 x i8], [3 x i8]* @.str, i64 0, i64 0), i32* %1)
  store i32 0, i32* %4, align 4
  br label %10

10:                                               ; preds = %45, %0
  %11 = load i32, i32* %4, align 4
  %12 = load i32, i32* %1, align 4
  %13 = icmp slt i32 %11, %12
  br i1 %13, label %14, label %48

14:                                               ; preds = %10
  %15 = load i32, i32* %4, align 4
  %16 = sext i32 %15 to i64
  %17 = getelementptr inbounds [100 x %struct.student], [100 x %struct.student]* %3, i64 0, i64 %16
  %18 = getelementptr inbounds %struct.student, %struct.student* %17, i32 0, i32 0
  %19 = getelementptr inbounds [25 x i8], [25 x i8]* %18, i64 0, i64 0
  %20 = load i32, i32* %4, align 4
  %21 = sext i32 %20 to i64
  %22 = getelementptr inbounds [100 x %struct.student], [100 x %struct.student]* %3, i64 0, i64 %21
  %23 = getelementptr inbounds %struct.student, %struct.student* %22, i32 0, i32 1
  %24 = load i32, i32* %4, align 4
  %25 = sext i32 %24 to i64
  %26 = getelementptr inbounds [100 x %struct.student], [100 x %struct.student]* %3, i64 0, i64 %25
  %27 = getelementptr inbounds %struct.student, %struct.student* %26, i32 0, i32 2
  %28 = load i32, i32* %4, align 4
  %29 = sext i32 %28 to i64
  %30 = getelementptr inbounds [100 x %struct.student], [100 x %struct.student]* %3, i64 0, i64 %29
  %31 = getelementptr inbounds %struct.student, %struct.student* %30, i32 0, i32 3
  %32 = load i32, i32* %4, align 4
  %33 = sext i32 %32 to i64
  %34 = getelementptr inbounds [100 x %struct.student], [100 x %struct.student]* %3, i64 0, i64 %33
  %35 = getelementptr inbounds %struct.student, %struct.student* %34, i32 0, i32 4
  %36 = load i32, i32* %4, align 4
  %37 = sext i32 %36 to i64
  %38 = getelementptr inbounds [100 x %struct.student], [100 x %struct.student]* %3, i64 0, i64 %37
  %39 = getelementptr inbounds %struct.student, %struct.student* %38, i32 0, i32 5
  %40 = call i32 (i8*, ...) @__isoc99_scanf(i8* getelementptr inbounds ([15 x i8], [15 x i8]* @.str.1, i64 0, i64 0), i8* %19, i32* %23, i32* %27, i8* %31, i8* %35, i32* %39)
  %41 = load i32, i32* %4, align 4
  %42 = sext i32 %41 to i64
  %43 = getelementptr inbounds [100 x %struct.student], [100 x %struct.student]* %3, i64 0, i64 %42
  %44 = getelementptr inbounds %struct.student, %struct.student* %43, i32 0, i32 6
  store i32 0, i32* %44, align 4
  br label %45

45:                                               ; preds = %14
  %46 = load i32, i32* %4, align 4
  %47 = add nsw i32 %46, 1
  store i32 %47, i32* %4, align 4
  br label %10

48:                                               ; preds = %10
  store i32 0, i32* %4, align 4
  br label %49

49:                                               ; preds = %181, %48
  %50 = load i32, i32* %4, align 4
  %51 = load i32, i32* %1, align 4
  %52 = icmp slt i32 %50, %51
  br i1 %52, label %53, label %184

53:                                               ; preds = %49
  %54 = load i32, i32* %4, align 4
  %55 = sext i32 %54 to i64
  %56 = getelementptr inbounds [100 x %struct.student], [100 x %struct.student]* %3, i64 0, i64 %55
  %57 = getelementptr inbounds %struct.student, %struct.student* %56, i32 0, i32 1
  %58 = load i32, i32* %57, align 4
  %59 = icmp sgt i32 %58, 80
  br i1 %59, label %60, label %78

60:                                               ; preds = %53
  %61 = load i32, i32* %4, align 4
  %62 = sext i32 %61 to i64
  %63 = getelementptr inbounds [100 x %struct.student], [100 x %struct.student]* %3, i64 0, i64 %62
  %64 = getelementptr inbounds %struct.student, %struct.student* %63, i32 0, i32 5
  %65 = load i32, i32* %64, align 8
  %66 = icmp sge i32 %65, 1
  br i1 %66, label %67, label %78

67:                                               ; preds = %60
  %68 = load i32, i32* %4, align 4
  %69 = sext i32 %68 to i64
  %70 = getelementptr inbounds [100 x %struct.student], [100 x %struct.student]* %3, i64 0, i64 %69
  %71 = getelementptr inbounds %struct.student, %struct.student* %70, i32 0, i32 6
  %72 = load i32, i32* %71, align 4
  %73 = add nsw i32 %72, 8000
  %74 = load i32, i32* %4, align 4
  %75 = sext i32 %74 to i64
  %76 = getelementptr inbounds [100 x %struct.student], [100 x %struct.student]* %3, i64 0, i64 %75
  %77 = getelementptr inbounds %struct.student, %struct.student* %76, i32 0, i32 6
  store i32 %73, i32* %77, align 4
  br label %78

78:                                               ; preds = %67, %60, %53
  %79 = load i32, i32* %4, align 4
  %80 = sext i32 %79 to i64
  %81 = getelementptr inbounds [100 x %struct.student], [100 x %struct.student]* %3, i64 0, i64 %80
  %82 = getelementptr inbounds %struct.student, %struct.student* %81, i32 0, i32 1
  %83 = load i32, i32* %82, align 4
  %84 = icmp sgt i32 %83, 85
  br i1 %84, label %85, label %103

85:                                               ; preds = %78
  %86 = load i32, i32* %4, align 4
  %87 = sext i32 %86 to i64
  %88 = getelementptr inbounds [100 x %struct.student], [100 x %struct.student]* %3, i64 0, i64 %87
  %89 = getelementptr inbounds %struct.student, %struct.student* %88, i32 0, i32 2
  %90 = load i32, i32* %89, align 16
  %91 = icmp sgt i32 %90, 80
  br i1 %91, label %92, label %103

92:                                               ; preds = %85
  %93 = load i32, i32* %4, align 4
  %94 = sext i32 %93 to i64
  %95 = getelementptr inbounds [100 x %struct.student], [100 x %struct.student]* %3, i64 0, i64 %94
  %96 = getelementptr inbounds %struct.student, %struct.student* %95, i32 0, i32 6
  %97 = load i32, i32* %96, align 4
  %98 = add nsw i32 %97, 4000
  %99 = load i32, i32* %4, align 4
  %100 = sext i32 %99 to i64
  %101 = getelementptr inbounds [100 x %struct.student], [100 x %struct.student]* %3, i64 0, i64 %100
  %102 = getelementptr inbounds %struct.student, %struct.student* %101, i32 0, i32 6
  store i32 %98, i32* %102, align 4
  br label %103

103:                                              ; preds = %92, %85, %78
  %104 = load i32, i32* %4, align 4
  %105 = sext i32 %104 to i64
  %106 = getelementptr inbounds [100 x %struct.student], [100 x %struct.student]* %3, i64 0, i64 %105
  %107 = getelementptr inbounds %struct.student, %struct.student* %106, i32 0, i32 1
  %108 = load i32, i32* %107, align 4
  %109 = icmp sgt i32 %108, 90
  br i1 %109, label %110, label %121

110:                                              ; preds = %103
  %111 = load i32, i32* %4, align 4
  %112 = sext i32 %111 to i64
  %113 = getelementptr inbounds [100 x %struct.student], [100 x %struct.student]* %3, i64 0, i64 %112
  %114 = getelementptr inbounds %struct.student, %struct.student* %113, i32 0, i32 6
  %115 = load i32, i32* %114, align 4
  %116 = add nsw i32 %115, 2000
  %117 = load i32, i32* %4, align 4
  %118 = sext i32 %117 to i64
  %119 = getelementptr inbounds [100 x %struct.student], [100 x %struct.student]* %3, i64 0, i64 %118
  %120 = getelementptr inbounds %struct.student, %struct.student* %119, i32 0, i32 6
  store i32 %116, i32* %120, align 4
  br label %121

121:                                              ; preds = %110, %103
  %122 = load i32, i32* %4, align 4
  %123 = sext i32 %122 to i64
  %124 = getelementptr inbounds [100 x %struct.student], [100 x %struct.student]* %3, i64 0, i64 %123
  %125 = getelementptr inbounds %struct.student, %struct.student* %124, i32 0, i32 1
  %126 = load i32, i32* %125, align 4
  %127 = icmp sgt i32 %126, 85
  br i1 %127, label %128, label %147

128:                                              ; preds = %121
  %129 = load i32, i32* %4, align 4
  %130 = sext i32 %129 to i64
  %131 = getelementptr inbounds [100 x %struct.student], [100 x %struct.student]* %3, i64 0, i64 %130
  %132 = getelementptr inbounds %struct.student, %struct.student* %131, i32 0, i32 4
  %133 = load i8, i8* %132, align 1
  %134 = sext i8 %133 to i32
  %135 = icmp eq i32 %134, 89
  br i1 %135, label %136, label %147

136:                                              ; preds = %128
  %137 = load i32, i32* %4, align 4
  %138 = sext i32 %137 to i64
  %139 = getelementptr inbounds [100 x %struct.student], [100 x %struct.student]* %3, i64 0, i64 %138
  %140 = getelementptr inbounds %struct.student, %struct.student* %139, i32 0, i32 6
  %141 = load i32, i32* %140, align 4
  %142 = add nsw i32 %141, 1000
  %143 = load i32, i32* %4, align 4
  %144 = sext i32 %143 to i64
  %145 = getelementptr inbounds [100 x %struct.student], [100 x %struct.student]* %3, i64 0, i64 %144
  %146 = getelementptr inbounds %struct.student, %struct.student* %145, i32 0, i32 6
  store i32 %142, i32* %146, align 4
  br label %147

147:                                              ; preds = %136, %128, %121
  %148 = load i32, i32* %4, align 4
  %149 = sext i32 %148 to i64
  %150 = getelementptr inbounds [100 x %struct.student], [100 x %struct.student]* %3, i64 0, i64 %149
  %151 = getelementptr inbounds %struct.student, %struct.student* %150, i32 0, i32 2
  %152 = load i32, i32* %151, align 16
  %153 = icmp sgt i32 %152, 80
  br i1 %153, label %154, label %173

154:                                              ; preds = %147
  %155 = load i32, i32* %4, align 4
  %156 = sext i32 %155 to i64
  %157 = getelementptr inbounds [100 x %struct.student], [100 x %struct.student]* %3, i64 0, i64 %156
  %158 = getelementptr inbounds %struct.student, %struct.student* %157, i32 0, i32 3
  %159 = load i8, i8* %158, align 4
  %160 = sext i8 %159 to i32
  %161 = icmp eq i32 %160, 89
  br i1 %161, label %162, label %173

162:                                              ; preds = %154
  %163 = load i32, i32* %4, align 4
  %164 = sext i32 %163 to i64
  %165 = getelementptr inbounds [100 x %struct.student], [100 x %struct.student]* %3, i64 0, i64 %164
  %166 = getelementptr inbounds %struct.student, %struct.student* %165, i32 0, i32 6
  %167 = load i32, i32* %166, align 4
  %168 = add nsw i32 %167, 850
  %169 = load i32, i32* %4, align 4
  %170 = sext i32 %169 to i64
  %171 = getelementptr inbounds [100 x %struct.student], [100 x %struct.student]* %3, i64 0, i64 %170
  %172 = getelementptr inbounds %struct.student, %struct.student* %171, i32 0, i32 6
  store i32 %168, i32* %172, align 4
  br label %173

173:                                              ; preds = %162, %154, %147
  %174 = load i32, i32* %2, align 4
  %175 = load i32, i32* %4, align 4
  %176 = sext i32 %175 to i64
  %177 = getelementptr inbounds [100 x %struct.student], [100 x %struct.student]* %3, i64 0, i64 %176
  %178 = getelementptr inbounds %struct.student, %struct.student* %177, i32 0, i32 6
  %179 = load i32, i32* %178, align 4
  %180 = add nsw i32 %174, %179
  store i32 %180, i32* %2, align 4
  br label %181

181:                                              ; preds = %173
  %182 = load i32, i32* %4, align 4
  %183 = add nsw i32 %182, 1
  store i32 %183, i32* %4, align 4
  br label %49

184:                                              ; preds = %49
  store i32 0, i32* %4, align 4
  store i32 0, i32* %2, align 4
  br label %185

185:                                              ; preds = %211, %184
  %186 = load i32, i32* %4, align 4
  %187 = load i32, i32* %1, align 4
  %188 = icmp slt i32 %186, %187
  br i1 %188, label %189, label %214

189:                                              ; preds = %185
  %190 = load i32, i32* %4, align 4
  %191 = sext i32 %190 to i64
  %192 = getelementptr inbounds [100 x %struct.student], [100 x %struct.student]* %3, i64 0, i64 %191
  %193 = getelementptr inbounds %struct.student, %struct.student* %192, i32 0, i32 6
  %194 = load i32, i32* %193, align 4
  %195 = load i32, i32* %8, align 4
  %196 = icmp sgt i32 %194, %195
  br i1 %196, label %197, label %203

197:                                              ; preds = %189
  %198 = load i32, i32* %4, align 4
  %199 = sext i32 %198 to i64
  %200 = getelementptr inbounds [100 x %struct.student], [100 x %struct.student]* %3, i64 0, i64 %199
  %201 = getelementptr inbounds %struct.student, %struct.student* %200, i32 0, i32 6
  %202 = load i32, i32* %201, align 4
  store i32 %202, i32* %8, align 4
  br label %203

203:                                              ; preds = %197, %189
  %204 = load i32, i32* %2, align 4
  %205 = load i32, i32* %4, align 4
  %206 = sext i32 %205 to i64
  %207 = getelementptr inbounds [100 x %struct.student], [100 x %struct.student]* %3, i64 0, i64 %206
  %208 = getelementptr inbounds %struct.student, %struct.student* %207, i32 0, i32 6
  %209 = load i32, i32* %208, align 4
  %210 = add nsw i32 %204, %209
  store i32 %210, i32* %2, align 4
  br label %211

211:                                              ; preds = %203
  %212 = load i32, i32* %4, align 4
  %213 = add nsw i32 %212, 1
  store i32 %213, i32* %4, align 4
  br label %185

214:                                              ; preds = %185
  store i32 0, i32* %4, align 4
  br label %215

215:                                              ; preds = %239, %214
  %216 = load i32, i32* %4, align 4
  %217 = load i32, i32* %1, align 4
  %218 = icmp slt i32 %216, %217
  br i1 %218, label %219, label %242

219:                                              ; preds = %215
  %220 = load i32, i32* %4, align 4
  %221 = sext i32 %220 to i64
  %222 = getelementptr inbounds [100 x %struct.student], [100 x %struct.student]* %3, i64 0, i64 %221
  %223 = getelementptr inbounds %struct.student, %struct.student* %222, i32 0, i32 6
  %224 = load i32, i32* %223, align 4
  %225 = load i32, i32* %8, align 4
  %226 = icmp eq i32 %224, %225
  br i1 %226, label %227, label %238

227:                                              ; preds = %219
  %228 = load i32, i32* %4, align 4
  %229 = sext i32 %228 to i64
  %230 = getelementptr inbounds [100 x %struct.student], [100 x %struct.student]* %3, i64 0, i64 %229
  %231 = getelementptr inbounds %struct.student, %struct.student* %230, i32 0, i32 0
  %232 = getelementptr inbounds [25 x i8], [25 x i8]* %231, i64 0, i64 0
  %233 = call i32 (i8*, ...) @printf(i8* getelementptr inbounds ([4 x i8], [4 x i8]* @.str.2, i64 0, i64 0), i8* %232)
  %234 = load i32, i32* %8, align 4
  %235 = call i32 (i8*, ...) @printf(i8* getelementptr inbounds ([4 x i8], [4 x i8]* @.str.3, i64 0, i64 0), i32 %234)
  %236 = load i32, i32* %2, align 4
  %237 = call i32 (i8*, ...) @printf(i8* getelementptr inbounds ([3 x i8], [3 x i8]* @.str, i64 0, i64 0), i32 %236)
  br label %242

238:                                              ; preds = %219
  br label %239

239:                                              ; preds = %238
  %240 = load i32, i32* %4, align 4
  %241 = add nsw i32 %240, 1
  store i32 %241, i32* %4, align 4
  br label %215

242:                                              ; preds = %227, %215
  ret void
}